target datalayout = "e-m:e-p270:32:32-p271:32:32-p272:64:64-i64:64-i128:128-f80:128-n8:16:32:64-S128"
target triple = "x86_64-pc-linux-gnu"

%"class.std::vector.21" = type { %"struct.std::_Vector_base.22" }
%"struct.std::_Vector_base.22" = type { %"struct.std::_Vector_base<const Luau::Type *, std::allocator<const Luau::Type *>>::_Vector_impl" }
%"struct.std::_Vector_base<const Luau::Type *, std::allocator<const Luau::Type *>>::_Vector_impl" = type { %"struct.std::_Vector_base<const Luau::Type *, std::allocator<const Luau::Type *>>::_Vector_impl_data" }
%"struct.std::_Vector_base<const Luau::Type *, std::allocator<const Luau::Type *>>::_Vector_impl_data" = type { ptr, ptr, ptr }
%"class.std::vector.26" = type { %"struct.std::_Vector_base.27" }
%"struct.std::_Vector_base.27" = type { %"struct.std::_Vector_base<const Luau::TypePackVar *, std::allocator<const Luau::TypePackVar *>>::_Vector_impl" }
%"struct.std::_Vector_base<const Luau::TypePackVar *, std::allocator<const Luau::TypePackVar *>>::_Vector_impl" = type { %"struct.std::_Vector_base<const Luau::TypePackVar *, std::allocator<const Luau::TypePackVar *>>::_Vector_impl_data" }
%"struct.std::_Vector_base<const Luau::TypePackVar *, std::allocator<const Luau::TypePackVar *>>::_Vector_impl_data" = type { ptr, ptr, ptr }
%"struct.Luau::NotNull" = type { ptr }
%"struct.Luau::Location" = type { %"struct.Luau::Position", %"struct.Luau::Position" }
%"struct.Luau::Position" = type { i32, i32 }
%"class.std::optional.63" = type { %"struct.std::_Optional_base.64" }
%"struct.std::_Optional_base.64" = type { %"struct.std::_Optional_payload.66" }
%"struct.std::_Optional_payload.66" = type { %"struct.std::_Optional_payload_base.base.68", [7 x i8] }
%"struct.std::_Optional_payload_base.base.68" = type <{ %"union.std::_Optional_payload_base<const Luau::Type *>::_Storage", i8 }>
%"union.std::_Optional_payload_base<const Luau::Type *>::_Storage" = type { ptr }
%"struct.std::_Vector_base.91" = type { %"struct.std::_Vector_base<Luau::TypeError, std::allocator<Luau::TypeError>>::_Vector_impl" }
%"struct.std::_Vector_base<Luau::TypeError, std::allocator<Luau::TypeError>>::_Vector_impl" = type { %"struct.std::_Vector_base<Luau::TypeError, std::allocator<Luau::TypeError>>::_Vector_impl_data" }
%"struct.std::_Vector_base<Luau::TypeError, std::allocator<Luau::TypeError>>::_Vector_impl_data" = type { ptr, ptr, ptr }
%"struct.Luau::Unifier" = type <{ ptr, %"struct.Luau::NotNull", %"struct.Luau::NotNull.97", %"struct.Luau::NotNull.98", %"struct.Luau::TxnLog", i8, [7 x i8], %"class.std::vector.90", %"struct.Luau::Location", i32, i8, i8, [2 x i8], i32, i8, [3 x i8], ptr, %"class.std::vector.21", %"class.std::vector.26", %"class.std::optional.99", i8, [7 x i8] }>
%"struct.Luau::NotNull.97" = type { ptr }
%"struct.Luau::NotNull.98" = type { ptr }
%"struct.Luau::TxnLog" = type { %"class.Luau::DenseHashMap", %"class.Luau::DenseHashMap.2", ptr, %"class.std::vector", i8, i8, ptr }
%"class.Luau::DenseHashMap" = type { %"class.Luau::detail::DenseHashTable.0" }
%"class.Luau::detail::DenseHashTable.0" = type <{ ptr, i64, i64, ptr, [8 x i8] }>
%"class.Luau::DenseHashMap.2" = type { %"class.Luau::detail::DenseHashTable.3" }
%"class.Luau::detail::DenseHashTable.3" = type <{ ptr, i64, i64, ptr, [8 x i8] }>
%"class.std::vector" = type { %"struct.std::_Vector_base" }
%"struct.std::_Vector_base" = type { %"struct.std::_Vector_base<std::pair<const void *, const void *>, std::allocator<std::pair<const void *, const void *>>>::_Vector_impl" }
%"struct.std::_Vector_base<std::pair<const void *, const void *>, std::allocator<std::pair<const void *, const void *>>>::_Vector_impl" = type { %"struct.std::_Vector_base<std::pair<const void *, const void *>, std::allocator<std::pair<const void *, const void *>>>::_Vector_impl_data" }
%"struct.std::_Vector_base<std::pair<const void *, const void *>, std::allocator<std::pair<const void *, const void *>>>::_Vector_impl_data" = type { ptr, ptr, ptr }
%"class.std::vector.90" = type { %"struct.std::_Vector_base.91" }
%"class.std::optional.99" = type { %"struct.std::_Optional_base.100" }
%"struct.std::_Optional_base.100" = type { %"struct.std::_Optional_payload.102" }
%"struct.std::_Optional_payload.102" = type { %"struct.std::_Optional_payload_base.base.104", [3 x i8] }
%"struct.std::_Optional_payload_base.base.104" = type <{ %"union.std::_Optional_payload_base<int>::_Storage", i8 }>
%"union.std::_Optional_payload_base<int>::_Storage" = type { i32 }

; Function Attrs: mustprogress uwtable
define dso_local { ptr, i8 } @_ZN4Luau7Unifier31findTablePropertyRespectingMetaEPKNS_4TypeENSt7__cxx1112basic_stringIcSt11char_traitsIcESaIcEEE(ptr noundef nonnull align 8 dereferenceable(289) %0, ptr noundef %1, ptr noundef %2) #3 align 2 {
  %4 = alloca %"class.std::optional.63", align 8
  %5 = alloca ptr, align 8
  %6 = alloca ptr, align 8
  %7 = alloca ptr, align 8
  %8 = alloca %"struct.Luau::NotNull", align 8
  %9 = alloca %"struct.Luau::Location", align 4
  store ptr %0, ptr %5, align 8, !tbaa !157
  store ptr %1, ptr %6, align 8, !tbaa !67
  store ptr %2, ptr %7, align 8, !tbaa !136
  %10 = load ptr, ptr %5, align 8
  %11 = getelementptr inbounds nuw %"struct.Luau::Unifier", ptr %10, i32 0, i32 1
  call void @llvm.memcpy.p0.p0.i64(ptr align 8 %8, ptr align 8 %11, i64 8, i1 false), !tbaa.struct !217
  %12 = getelementptr inbounds nuw %"struct.Luau::Unifier", ptr %10, i32 0, i32 7
  %13 = load ptr, ptr %6, align 8, !tbaa !67
  %14 = getelementptr inbounds nuw %"struct.Luau::Unifier", ptr %10, i32 0, i32 8
  call void @llvm.memcpy.p0.p0.i64(ptr align 4 %9, ptr align 8 %14, i64 16, i1 false), !tbaa.struct !223
  %15 = getelementptr inbounds nuw %"struct.Luau::NotNull", ptr %8, i32 0, i32 0
  %16 = load ptr, ptr %15, align 8
  %17 = getelementptr inbounds nuw { i64, i64 }, ptr %9, i32 0, i32 0
  %18 = load i64, ptr %17, align 4
  %19 = getelementptr inbounds nuw { i64, i64 }, ptr %9, i32 0, i32 1
  %20 = load i64, ptr %19, align 4
  %21 = call { ptr, i8 } @_ZN4Luau31findTablePropertyRespectingMetaENS_7NotNullINS_12BuiltinTypesEEERSt6vectorINS_9TypeErrorESaIS4_EEPKNS_4TypeERKNSt7__cxx1112basic_stringIcSt11char_traitsIcESaIcEEENS_8LocationE(ptr %16, ptr noundef nonnull align 8 dereferenceable(24) %12, ptr noundef %13, ptr noundef nonnull align 8 dereferenceable(32) %2, i64 %18, i64 %20)
  %22 = getelementptr inbounds nuw %"class.std::optional.63", ptr %4, i32 0, i32 0
  %23 = getelementptr inbounds nuw %"struct.std::_Optional_base.64", ptr %22, i32 0, i32 0
  %24 = getelementptr inbounds nuw { ptr, i8 }, ptr %23, i32 0, i32 0
  %25 = extractvalue { ptr, i8 } %21, 0
  store ptr %25, ptr %24, align 8
  %26 = getelementptr inbounds nuw { ptr, i8 }, ptr %23, i32 0, i32 1
  %27 = extractvalue { ptr, i8 } %21, 1
  store i8 %27, ptr %26, align 8
  %28 = getelementptr inbounds nuw %"class.std::optional.63", ptr %4, i32 0, i32 0
  %29 = getelementptr inbounds nuw %"struct.std::_Optional_base.64", ptr %28, i32 0, i32 0
  %30 = load { ptr, i8 }, ptr %29, align 8
  ret { ptr, i8 } %30
}