; Function Attrs: mustprogress uwtable
define dso_local { ptr, i8 } @_ZN4Luau7Unifier31findTablePropertyRespectingMetaEPKNS_4TypeENSt7__cxx1112basic_stringIcSt11char_traitsIcESaIcEEE(ptr noundef nonnull align 8 dereferenceable(289) %0, ptr noundef %1, ptr noundef nonnull %2) local_unnamed_addr #2 align 2 {
  %4 = getelementptr inbounds nuw i8, ptr %0, i64 8
  %.sroa.01.0.copyload = load ptr, ptr %4, align 8, !tbaa !169
  %5 = getelementptr inbounds nuw i8, ptr %0, i64 168
  %6 = getelementptr inbounds nuw i8, ptr %0, i64 192
  %.sroa.0.0.copyload = load i64, ptr %6, align 8
  %.sroa.2.0..sroa_idx = getelementptr inbounds nuw i8, ptr %0, i64 200
  %.sroa.2.0.copyload = load i64, ptr %.sroa.2.0..sroa_idx, align 8
  %7 = tail call { ptr, i8 } @_ZN4Luau31findTablePropertyRespectingMetaENS_7NotNullINS_12BuiltinTypesEEERSt6vectorINS_9TypeErrorESaIS4_EEPKNS_4TypeERKNSt7__cxx1112basic_stringIcSt11char_traitsIcESaIcEEENS_8LocationE(ptr %.sroa.01.0.copyload, ptr noundef nonnull align 8 dereferenceable(24) %5, ptr noundef %1, ptr noundef nonnull align 8 dereferenceable(32) %2, i64 %.sroa.0.0.copyload, i64 %.sroa.2.0.copyload)
  ret { ptr, i8 } %7
}